; Function Attrs: mustprogress uwtable
define hidden noundef i32 @_ZN7datalog11udoc_plugin18num_signature_bitsERKNS_18relation_signatureE(ptr noundef nonnull align 8 dereferenceable(129) %0, ptr noundef nonnull readonly align 8 captures(none) dereferenceable(8) %1) local_unnamed_addr #3 align 2 {
  br label %3

3:                                                ; preds = %12, %2
  %indvars.iv = phi i64 [ %indvars.iv.next, %12 ], [ 0, %2 ]
  %.07 = phi i32 [ %16, %12 ], [ 0, %2 ]
  %4 = load ptr, ptr %1, align 8, !tbaa !10
  %5 = icmp eq ptr %4, null
  br i1 %5, label %_ZNK6vectorIP4sortLb0EjE4sizeEv.exit, label %6

6:                                                ; preds = %3
  %7 = getelementptr inbounds i8, ptr %4, i64 -4
  %8 = load i32, ptr %7, align 4, !tbaa !14
  %9 = zext i32 %8 to i64
  br label %_ZNK6vectorIP4sortLb0EjE4sizeEv.exit

_ZNK6vectorIP4sortLb0EjE4sizeEv.exit:             ; preds = %3, %6
  %.0.i = phi i64 [ %9, %6 ], [ 0, %3 ]
  %10 = icmp samesign ult i64 %indvars.iv, %.0.i
  br i1 %10, label %12, label %11

11:                                               ; preds = %_ZNK6vectorIP4sortLb0EjE4sizeEv.exit
  ret i32 %.07

12:                                               ; preds = %_ZNK6vectorIP4sortLb0EjE4sizeEv.exit
  %13 = getelementptr inbounds nuw ptr, ptr %4, i64 %indvars.iv
  %14 = load ptr, ptr %13, align 8, !tbaa !26
  %15 = tail call noundef i32 @_ZNK7datalog11udoc_plugin13num_sort_bitsEP4sort(ptr noundef nonnull align 8 dereferenceable(129) %0, ptr noundef %14)
  %16 = add i32 %15, %.07
  %indvars.iv.next = add nuw nsw i64 %indvars.iv, 1
  br label %3, !llvm.loop !28
}